; Function Attrs: mustprogress uwtable
define dso_local void @_ZN4pbrt22FormattingParserTarget6LookAtEfffffffffNS_7FileLocE(ptr noundef nonnull align 8 dereferenceable(216) %this, float noundef %ex, float noundef %ey, float noundef %ez, float noundef %lx, float noundef %ly, float noundef %lz, float noundef %ux, float noundef %uy, float noundef %uz, ptr nocapture noundef readnone byval(%"struct.pbrt::FileLoc") align 8 %loc) unnamed_addr #3 align 2 personality ptr @__gxx_personality_v0 {
entry:
  %s.i = alloca %"class.std::__cxx11::basic_string", align 8
  %ex.addr = alloca float, align 4
  %ey.addr = alloca float, align 4
  %ez.addr = alloca float, align 4
  %lx.addr = alloca float, align 4
  %ly.addr = alloca float, align 4
  %lz.addr = alloca float, align 4
  %ux.addr = alloca float, align 4
  %uy.addr = alloca float, align 4
  %uz.addr = alloca float, align 4
  %ref.tmp = alloca %"class.std::__cxx11::basic_string", align 8
  %ref.tmp2 = alloca %"class.std::__cxx11::basic_string", align 8
  %ref.tmp3 = alloca %"class.std::__cxx11::basic_string", align 8
  store float %ex, ptr %ex.addr, align 4
  store float %ey, ptr %ey.addr, align 4
  store float %ez, ptr %ez.addr, align 4
  store float %lx, ptr %lx.addr, align 4
  store float %ly, ptr %ly.addr, align 4
  store float %lz, ptr %lz.addr, align 4
  store float %ux, ptr %ux.addr, align 4
  store float %uy, ptr %uy.addr, align 4
  store float %uz, ptr %uz.addr, align 4
  call void @_ZNK4pbrt22FormattingParserTarget6indentB5cxx11Ei(ptr nonnull sret(%"class.std::__cxx11::basic_string") align 8 %ref.tmp, ptr noundef nonnull align 8 dereferenceable(216) %this, i32 noundef 0)
  invoke void @_ZNK4pbrt22FormattingParserTarget6indentB5cxx11Ei(ptr nonnull sret(%"class.std::__cxx11::basic_string") align 8 %ref.tmp2, ptr noundef nonnull align 8 dereferenceable(216) %this, i32 noundef 0)
          to label %invoke.cont unwind label %lpad

invoke.cont:                                      ; preds = %entry
  invoke void @_ZNK4pbrt22FormattingParserTarget6indentB5cxx11Ei(ptr nonnull sret(%"class.std::__cxx11::basic_string") align 8 %ref.tmp3, ptr noundef nonnull align 8 dereferenceable(216) %this, i32 noundef 0)
          to label %invoke.cont5 unwind label %lpad4

invoke.cont5:                                     ; preds = %invoke.cont
  call void @llvm.lifetime.start.p0(i64 32, ptr nonnull %s.i)
  call void @_ZNSt7__cxx1112basic_stringIcSt11char_traitsIcESaIcEEC1Ev(ptr noundef nonnull align 8 dereferenceable(32) %s.i) #32
  invoke void @_ZN4pbrt6detail21stringPrintfRecursiveINSt7__cxx1112basic_stringIcSt11char_traitsIcESaIcEEEJRfS8_S8_S7_S8_S8_S8_S7_S8_S8_S8_EEEvPS7_PKcOT_DpOT0_(ptr noundef nonnull %s.i, ptr noundef nonnull @.str.92, ptr noundef nonnull align 8 dereferenceable(32) %ref.tmp, ptr noundef nonnull align 4 dereferenceable(4) %ex.addr, ptr noundef nonnull align 4 dereferenceable(4) %ey.addr, ptr noundef nonnull align 4 dereferenceable(4) %ez.addr, ptr noundef nonnull align 8 dereferenceable(32) %ref.tmp2, ptr noundef nonnull align 4 dereferenceable(4) %lx.addr, ptr noundef nonnull align 4 dereferenceable(4) %ly.addr, ptr noundef nonnull align 4 dereferenceable(4) %lz.addr, ptr noundef nonnull align 8 dereferenceable(32) %ref.tmp3, ptr noundef nonnull align 4 dereferenceable(4) %ux.addr, ptr noundef nonnull align 4 dereferenceable(4) %uy.addr, ptr noundef nonnull align 4 dereferenceable(4) %uz.addr)
          to label %invoke.cont7 unwind label %lpad.i.i

lpad.i.i:                                         ; preds = %invoke.cont5
  %0 = landingpad { ptr, i32 }
          cleanup
  call void @_ZNSt7__cxx1112basic_stringIcSt11char_traitsIcESaIcEED1Ev(ptr noundef nonnull align 8 dereferenceable(32) %s.i) #32
  call void @_ZNSt7__cxx1112basic_stringIcSt11char_traitsIcESaIcEED1Ev(ptr noundef nonnull align 8 dereferenceable(32) %ref.tmp3) #32
  br label %ehcleanup

invoke.cont7:                                     ; preds = %invoke.cont5
  %call.i = call noundef ptr @_ZNKSt7__cxx1112basic_stringIcSt11char_traitsIcESaIcEE5c_strEv(ptr noundef nonnull align 8 dereferenceable(32) %s.i) #32
  %1 = load ptr, ptr @stdout, align 8
  %call23.i = call i32 @fputs(ptr noundef %call.i, ptr noundef %1)
  call void @_ZNSt7__cxx1112basic_stringIcSt11char_traitsIcESaIcEED1Ev(ptr noundef nonnull align 8 dereferenceable(32) %s.i) #32
  call void @llvm.lifetime.end.p0(i64 32, ptr nonnull %s.i)
  call void @_ZNSt7__cxx1112basic_stringIcSt11char_traitsIcESaIcEED1Ev(ptr noundef nonnull align 8 dereferenceable(32) %ref.tmp3) #32
  call void @_ZNSt7__cxx1112basic_stringIcSt11char_traitsIcESaIcEED1Ev(ptr noundef nonnull align 8 dereferenceable(32) %ref.tmp2) #32
  call void @_ZNSt7__cxx1112basic_stringIcSt11char_traitsIcESaIcEED1Ev(ptr noundef nonnull align 8 dereferenceable(32) %ref.tmp) #32
  ret void

lpad:                                             ; preds = %entry
  %2 = landingpad { ptr, i32 }
          cleanup
  br label %ehcleanup8

lpad4:                                            ; preds = %invoke.cont
  %3 = landingpad { ptr, i32 }
          cleanup
  br label %ehcleanup

ehcleanup:                                        ; preds = %lpad.i.i, %lpad4
  %.pn = phi { ptr, i32 } [ %0, %lpad.i.i ], [ %3, %lpad4 ]
  call void @_ZNSt7__cxx1112basic_stringIcSt11char_traitsIcESaIcEED1Ev(ptr noundef nonnull align 8 dereferenceable(32) %ref.tmp2) #32
  br label %ehcleanup8

ehcleanup8:                                       ; preds = %ehcleanup, %lpad
  %.pn.pn = phi { ptr, i32 } [ %.pn, %ehcleanup ], [ %2, %lpad ]
  call void @_ZNSt7__cxx1112basic_stringIcSt11char_traitsIcESaIcEED1Ev(ptr noundef nonnull align 8 dereferenceable(32) %ref.tmp) #32
  resume { ptr, i32 } %.pn.pn
}